target datalayout = "e-m:e-p270:32:32-p271:32:32-p272:64:64-i64:64-i128:128-f80:128-n8:16:32:64-S128"
target triple = "x86_64-pc-linux-gnu"

%"struct.nori::TPoint" = type { %"class.Eigen::Matrix" }
%"class.Eigen::Matrix" = type { %"class.Eigen::PlainObjectBase" }
%"class.Eigen::PlainObjectBase" = type { %"class.Eigen::DenseStorage" }
%"class.Eigen::DenseStorage" = type { %"struct.Eigen::internal::plain_array" }
%"struct.Eigen::internal::plain_array" = type { [2 x float] }

@.str = private unnamed_addr constant [45 x i8] c"Warp::squareToTent() is not yet implemented!\00", align 1
@_ZTIN4nori13NoriExceptionE = linkonce_odr hidden constant { ptr, ptr, ptr } { ptr getelementptr inbounds (ptr, ptr @_ZTVN10__cxxabiv120__si_class_type_infoE, i64 2), ptr @_ZTSN4nori13NoriExceptionE, ptr @_ZTISt13runtime_error }, comdat, align 8

; Function Attrs: mustprogress uwtable
define hidden void @_ZN4nori4Warp12squareToTentERKNS_6TPointIfLi2EEE(ptr dead_on_unwind noalias writable sret(%"struct.nori::TPoint") align 4 %0, ptr noundef nonnull align 4 dereferenceable(8) %1) #4 align 2 personality ptr @__gxx_personality_v0 {
  %3 = alloca ptr, align 8
  %4 = alloca ptr, align 8
  %5 = alloca ptr, align 8
  %6 = alloca i32, align 4
  store ptr %0, ptr %3, align 8
  store ptr %1, ptr %4, align 8
  %7 = call ptr @__cxa_allocate_exception(i64 16) #3
  invoke void @_ZN4nori13NoriExceptionC2IJEEEPKcDpRKT_(ptr noundef nonnull align 8 dereferenceable(16) %7, ptr noundef @.str)
          to label %8 unwind label %9

8:                                                ; preds = %2
  call void @__cxa_throw(ptr %7, ptr @_ZTIN4nori13NoriExceptionE, ptr @_ZN4nori13NoriExceptionD2Ev) #8
  unreachable

9:                                                ; preds = %2
  %10 = landingpad { ptr, i32 }
          cleanup
  %11 = extractvalue { ptr, i32 } %10, 0
  store ptr %11, ptr %5, align 8
  %12 = extractvalue { ptr, i32 } %10, 1
  store i32 %12, ptr %6, align 4
  call void @__cxa_free_exception(ptr %7) #3
  br label %13

13:                                               ; preds = %9
  %14 = load ptr, ptr %5, align 8
  %15 = load i32, ptr %6, align 4
  %16 = insertvalue { ptr, i32 } poison, ptr %14, 0
  %17 = insertvalue { ptr, i32 } %16, i32 %15, 1
  resume { ptr, i32 } %17
}